target datalayout = "e-m:e-p270:32:32-p271:32:32-p272:64:64-i64:64-i128:128-f80:128-n8:16:32:64-S128"
target triple = "x86_64-pc-linux-gnu"

%"class.pbrt::SquareMatrix" = type { [3 x [3 x float]] }
%"class.pbrt::RGBIlluminantSpectrum" = type { float, %"class.pbrt::RGBSigmoidPolynomial", ptr }
%"class.pbrt::RGBSigmoidPolynomial" = type { float, float, float }
%"class.pstd::vector" = type { %"class.pstd::pmr::polymorphic_allocator", ptr, i64, i64 }
%"class.pstd::pmr::polymorphic_allocator" = type { ptr }
%"class.pbrt::DenselySampledSpectrum" = type { i32, i32, %"class.pstd::vector" }
%"class.pbrt::RGB" = type { float, float, float }
%"class.pbrt::RGBColorSpace" = type { %"class.pbrt::Point2", %"class.pbrt::Point2", %"class.pbrt::Point2", %"class.pbrt::Point2", %"class.pbrt::DenselySampledSpectrum", %"class.pbrt::SquareMatrix", %"class.pbrt::SquareMatrix", ptr }
%"class.pbrt::Point2" = type { %"class.pbrt::Tuple2" }
%"class.pbrt::Tuple2" = type { float, float }
%"class.std::initializer_list" = type { ptr, i64 }
%"struct.__gnu_cxx::__ops::_Iter_less_iter" = type { i8 }

; Function Attrs: mustprogress nounwind uwtable
define linkonce_odr dso_local noundef zeroext i1 @_ZNK9__gnu_cxx5__ops15_Iter_less_iterclIPKfS4_EEbT_T0_(ptr noundef nonnull align 1 dereferenceable(1) %0, ptr noundef %1, ptr noundef %2) #3 comdat align 2 {
  %4 = alloca ptr, align 8
  %5 = alloca ptr, align 8
  %6 = alloca ptr, align 8
  store ptr %0, ptr %4, align 8, !tbaa !241
  store ptr %1, ptr %5, align 8, !tbaa !48
  store ptr %2, ptr %6, align 8, !tbaa !48
  %7 = load ptr, ptr %5, align 8, !tbaa !48
  %8 = load float, ptr %7, align 4, !tbaa !9
  %9 = load ptr, ptr %6, align 8, !tbaa !48
  %10 = load float, ptr %9, align 4, !tbaa !9
  %11 = fcmp olt float %8, %10
  ret i1 %11
}

; Function Attrs: mustprogress nounwind uwtable
define linkonce_odr dso_local noundef i64 @_ZNKSt16initializer_listIfE4sizeEv(ptr noundef nonnull align 8 dereferenceable(16) %0) #3 comdat align 2 {
  %2 = alloca ptr, align 8
  store ptr %0, ptr %2, align 8, !tbaa !248
  %3 = load ptr, ptr %2, align 8
  %4 = getelementptr inbounds nuw %"class.std::initializer_list", ptr %3, i32 0, i32 1
  %5 = load i64, ptr %4, align 8, !tbaa !138
  ret i64 %5
}

; Function Attrs: mustprogress nounwind uwtable
define linkonce_odr dso_local noundef nonnull align 4 dereferenceable(12) ptr @_ZN4pbrt3RGBdVEf(ptr noundef nonnull align 4 dereferenceable(12) %0, float noundef %1) #3 comdat align 2 {
  %3 = alloca ptr, align 8
  %4 = alloca float, align 4
  store ptr %0, ptr %3, align 8, !tbaa !139
  store float %1, ptr %4, align 4, !tbaa !9
  %5 = load ptr, ptr %3, align 8
  br label %6

6:                                                ; preds = %2
  br label %7

7:                                                ; preds = %6
  br label %8

8:                                                ; preds = %7
  br label %9

9:                                                ; preds = %8
  %10 = load float, ptr %4, align 4, !tbaa !9
  %11 = getelementptr inbounds nuw %"class.pbrt::RGB", ptr %5, i32 0, i32 0
  %12 = load float, ptr %11, align 4, !tbaa !132
  %13 = fdiv float %12, %10
  store float %13, ptr %11, align 4, !tbaa !132
  %14 = load float, ptr %4, align 4, !tbaa !9
  %15 = getelementptr inbounds nuw %"class.pbrt::RGB", ptr %5, i32 0, i32 1
  %16 = load float, ptr %15, align 4, !tbaa !134
  %17 = fdiv float %16, %14
  store float %17, ptr %15, align 4, !tbaa !134
  %18 = load float, ptr %4, align 4, !tbaa !9
  %19 = getelementptr inbounds nuw %"class.pbrt::RGB", ptr %5, i32 0, i32 2
  %20 = load float, ptr %19, align 4, !tbaa !135
  %21 = fdiv float %20, %18
  store float %21, ptr %19, align 4, !tbaa !135
  ret ptr %5
}

; Function Attrs: mustprogress uwtable
define linkonce_odr dso_local noundef ptr @_ZSt13__max_elementIPKfN9__gnu_cxx5__ops15_Iter_less_iterEET_S5_S5_T0_(ptr noundef %0, ptr noundef %1) #1 comdat {
  %3 = alloca ptr, align 8
  %4 = alloca %"struct.__gnu_cxx::__ops::_Iter_less_iter", align 1
  %5 = alloca ptr, align 8
  %6 = alloca ptr, align 8
  %7 = alloca ptr, align 8
  store ptr %0, ptr %5, align 8, !tbaa !48
  store ptr %1, ptr %6, align 8, !tbaa !48
  %8 = load ptr, ptr %5, align 8, !tbaa !48
  %9 = load ptr, ptr %6, align 8, !tbaa !48
  %10 = icmp eq ptr %8, %9
  br i1 %10, label %11, label %13

11:                                               ; preds = %2
  %12 = load ptr, ptr %5, align 8, !tbaa !48
  store ptr %12, ptr %3, align 8
  br label %29

13:                                               ; preds = %2
  call void @llvm.lifetime.start.p0(i64 8, ptr %7) #12
  %14 = load ptr, ptr %5, align 8, !tbaa !48
  store ptr %14, ptr %7, align 8, !tbaa !48
  br label %15

15:                                               ; preds = %26, %13
  %16 = load ptr, ptr %5, align 8, !tbaa !48
  %17 = getelementptr inbounds nuw float, ptr %16, i32 1
  store ptr %17, ptr %5, align 8, !tbaa !48
  %18 = load ptr, ptr %6, align 8, !tbaa !48
  %19 = icmp ne ptr %17, %18
  br i1 %19, label %20, label %27

20:                                               ; preds = %15
  %21 = load ptr, ptr %7, align 8, !tbaa !48
  %22 = load ptr, ptr %5, align 8, !tbaa !48
  %23 = call noundef zeroext i1 @_ZNK9__gnu_cxx5__ops15_Iter_less_iterclIPKfS4_EEbT_T0_(ptr noundef nonnull align 1 dereferenceable(1) %4, ptr noundef %21, ptr noundef %22)
  br i1 %23, label %24, label %26

24:                                               ; preds = %20
  %25 = load ptr, ptr %5, align 8, !tbaa !48
  store ptr %25, ptr %7, align 8, !tbaa !48
  br label %26

26:                                               ; preds = %24, %20
  br label %15, !llvm.loop !240

27:                                               ; preds = %15
  %28 = load ptr, ptr %7, align 8, !tbaa !48
  store ptr %28, ptr %3, align 8
  call void @llvm.lifetime.end.p0(i64 8, ptr %7) #12
  br label %29

29:                                               ; preds = %27, %11
  %30 = load ptr, ptr %3, align 8
  ret ptr %30
}

; Function Attrs: inlinehint mustprogress nounwind uwtable
define linkonce_odr dso_local void @_ZN9__gnu_cxx5__ops16__iter_less_iterEv() #5 comdat {
  ret void
}

; Function Attrs: mustprogress nounwind uwtable
define linkonce_odr dso_local noundef ptr @_ZNKSt16initializer_listIfE3endEv(ptr noundef nonnull align 8 dereferenceable(16) %0) #3 comdat align 2 {
  %2 = alloca ptr, align 8
  store ptr %0, ptr %2, align 8, !tbaa !248
  %3 = load ptr, ptr %2, align 8
  %4 = call noundef ptr @_ZNKSt16initializer_listIfE5beginEv(ptr noundef nonnull align 8 dereferenceable(16) %3) #12
  %5 = call noundef i64 @_ZNKSt16initializer_listIfE4sizeEv(ptr noundef nonnull align 8 dereferenceable(16) %3) #12
  %6 = getelementptr inbounds nuw float, ptr %4, i64 %5
  ret ptr %6
}

; Function Attrs: mustprogress nounwind uwtable
define linkonce_odr dso_local noundef ptr @_ZNKSt16initializer_listIfE5beginEv(ptr noundef nonnull align 8 dereferenceable(16) %0) #3 comdat align 2 {
  %2 = alloca ptr, align 8
  store ptr %0, ptr %2, align 8, !tbaa !248
  %3 = load ptr, ptr %2, align 8
  %4 = getelementptr inbounds nuw %"class.std::initializer_list", ptr %3, i32 0, i32 0
  %5 = load ptr, ptr %4, align 8, !tbaa !136
  ret ptr %5
}

; Function Attrs: mustprogress nounwind uwtable
define linkonce_odr dso_local void @_ZN4pbrt3RGBC2Efff(ptr noundef nonnull align 4 dereferenceable(12) %0, float noundef %1, float noundef %2, float noundef %3) unnamed_addr #3 comdat align 2 {
  %5 = alloca ptr, align 8
  %6 = alloca float, align 4
  %7 = alloca float, align 4
  %8 = alloca float, align 4
  store ptr %0, ptr %5, align 8, !tbaa !139
  store float %1, ptr %6, align 4, !tbaa !9
  store float %2, ptr %7, align 4, !tbaa !9
  store float %3, ptr %8, align 4, !tbaa !9
  %9 = load ptr, ptr %5, align 8
  %10 = getelementptr inbounds nuw %"class.pbrt::RGB", ptr %9, i32 0, i32 0
  %11 = load float, ptr %6, align 4, !tbaa !9
  store float %11, ptr %10, align 4, !tbaa !132
  %12 = getelementptr inbounds nuw %"class.pbrt::RGB", ptr %9, i32 0, i32 1
  %13 = load float, ptr %7, align 4, !tbaa !9
  store float %13, ptr %12, align 4, !tbaa !134
  %14 = getelementptr inbounds nuw %"class.pbrt::RGB", ptr %9, i32 0, i32 2
  %15 = load float, ptr %8, align 4, !tbaa !9
  store float %15, ptr %14, align 4, !tbaa !135
  ret void
}

; Function Attrs: mustprogress uwtable
define linkonce_odr dso_local { <2 x float>, float } @_ZNK4pbrt3RGBdvEf(ptr noundef nonnull align 4 dereferenceable(12) %0, float noundef %1) #1 comdat align 2 {
  %3 = alloca %"class.pbrt::RGB", align 4
  %4 = alloca ptr, align 8
  %5 = alloca float, align 4
  %6 = alloca %"class.pbrt::RGB", align 4
  %7 = alloca { <2 x float>, float }, align 8
  store ptr %0, ptr %4, align 8, !tbaa !139
  store float %1, ptr %5, align 4, !tbaa !9
  %8 = load ptr, ptr %4, align 8
  call void @llvm.lifetime.start.p0(i64 12, ptr %6) #12
  call void @llvm.memcpy.p0.p0.i64(ptr align 4 %6, ptr align 4 %8, i64 12, i1 false), !tbaa.struct !32
  %9 = load float, ptr %5, align 4, !tbaa !9
  %10 = call noundef nonnull align 4 dereferenceable(12) ptr @_ZN4pbrt3RGBdVEf(ptr noundef nonnull align 4 dereferenceable(12) %6, float noundef %9)
  call void @llvm.memcpy.p0.p0.i64(ptr align 4 %3, ptr align 4 %10, i64 12, i1 false), !tbaa.struct !32
  call void @llvm.lifetime.end.p0(i64 12, ptr %6) #12
  call void @llvm.memcpy.p0.p0.i64(ptr align 8 %7, ptr align 4 %3, i64 12, i1 false)
  %11 = load { <2 x float>, float }, ptr %7, align 8
  ret { <2 x float>, float } %11
}

; Function Attrs: inlinehint mustprogress uwtable
define linkonce_odr dso_local noundef float @_ZSt3maxIfET_St16initializer_listIS0_E(ptr %0, i64 %1) #4 comdat {
  %3 = alloca %"class.std::initializer_list", align 8
  %4 = getelementptr inbounds nuw { ptr, i64 }, ptr %3, i32 0, i32 0
  store ptr %0, ptr %4, align 8
  %5 = getelementptr inbounds nuw { ptr, i64 }, ptr %3, i32 0, i32 1
  store i64 %1, ptr %5, align 8
  %6 = call noundef ptr @_ZNKSt16initializer_listIfE5beginEv(ptr noundef nonnull align 8 dereferenceable(16) %3) #12
  %7 = call noundef ptr @_ZNKSt16initializer_listIfE3endEv(ptr noundef nonnull align 8 dereferenceable(16) %3) #12
  call void @_ZN9__gnu_cxx5__ops16__iter_less_iterEv()
  %8 = call noundef ptr @_ZSt13__max_elementIPKfN9__gnu_cxx5__ops15_Iter_less_iterEET_S5_S5_T0_(ptr noundef %6, ptr noundef %7)
  %9 = load float, ptr %8, align 4, !tbaa !9
  ret float %9
}

; Function Attrs: mustprogress uwtable
define dso_local void @_ZN4pbrt21RGBIlluminantSpectrumC2ERKNS_13RGBColorSpaceENS_3RGBE(ptr noundef nonnull align 8 dereferenceable(24) %0, ptr noundef nonnull align 8 dereferenceable(152) %1, <2 x float> %2, float %3) unnamed_addr #6 align 2 {
  %5 = alloca %"class.pbrt::RGB", align 4
  %6 = alloca { <2 x float>, float }, align 4
  %7 = alloca ptr, align 8
  %8 = alloca ptr, align 8
  %9 = alloca float, align 4
  %10 = alloca %"class.std::initializer_list", align 8
  %11 = alloca [3 x float], align 4
  %12 = alloca %"class.pbrt::RGBSigmoidPolynomial", align 4
  %13 = alloca %"class.pbrt::RGB", align 4
  %14 = alloca { <2 x float>, float }, align 8
  %15 = alloca { <2 x float>, float }, align 4
  %16 = alloca { <2 x float>, float }, align 8
  %17 = getelementptr inbounds nuw { <2 x float>, float }, ptr %6, i32 0, i32 0
  store <2 x float> %2, ptr %17, align 4
  %18 = getelementptr inbounds nuw { <2 x float>, float }, ptr %6, i32 0, i32 1
  store float %3, ptr %18, align 4
  call void @llvm.memcpy.p0.p0.i64(ptr align 4 %5, ptr align 4 %6, i64 12, i1 false)
  store ptr %0, ptr %7, align 8, !tbaa !17
  store ptr %1, ptr %8, align 8, !tbaa !124
  %19 = load ptr, ptr %7, align 8
  %20 = getelementptr inbounds nuw %"class.pbrt::RGBIlluminantSpectrum", ptr %19, i32 0, i32 2
  %21 = load ptr, ptr %8, align 8, !tbaa !124
  %22 = getelementptr inbounds nuw %"class.pbrt::RGBColorSpace", ptr %21, i32 0, i32 4
  store ptr %22, ptr %20, align 8, !tbaa !19
  call void @llvm.lifetime.start.p0(i64 4, ptr %9) #12
  call void @llvm.lifetime.start.p0(i64 12, ptr %11) #12
  %23 = getelementptr inbounds nuw %"class.pbrt::RGB", ptr %5, i32 0, i32 0
  %24 = load float, ptr %23, align 4, !tbaa !132
  store float %24, ptr %11, align 4, !tbaa !9
  %25 = getelementptr inbounds float, ptr %11, i64 1
  %26 = getelementptr inbounds nuw %"class.pbrt::RGB", ptr %5, i32 0, i32 1
  %27 = load float, ptr %26, align 4, !tbaa !134
  store float %27, ptr %25, align 4, !tbaa !9
  %28 = getelementptr inbounds float, ptr %11, i64 2
  %29 = getelementptr inbounds nuw %"class.pbrt::RGB", ptr %5, i32 0, i32 2
  %30 = load float, ptr %29, align 4, !tbaa !135
  store float %30, ptr %28, align 4, !tbaa !9
  %31 = getelementptr inbounds nuw %"class.std::initializer_list", ptr %10, i32 0, i32 0
  store ptr %11, ptr %31, align 8, !tbaa !136
  %32 = getelementptr inbounds nuw %"class.std::initializer_list", ptr %10, i32 0, i32 1
  store i64 3, ptr %32, align 8, !tbaa !138
  %33 = getelementptr inbounds nuw { ptr, i64 }, ptr %10, i32 0, i32 0
  %34 = load ptr, ptr %33, align 8
  %35 = getelementptr inbounds nuw { ptr, i64 }, ptr %10, i32 0, i32 1
  %36 = load i64, ptr %35, align 8
  %37 = call noundef float @_ZSt3maxIfET_St16initializer_listIS0_E(ptr %34, i64 %36)
  call void @llvm.lifetime.end.p0(i64 12, ptr %11) #12
  store float %37, ptr %9, align 4, !tbaa !9
  %38 = load float, ptr %9, align 4, !tbaa !9
  %39 = fmul float 2.000000e+00, %38
  %40 = getelementptr inbounds nuw %"class.pbrt::RGBIlluminantSpectrum", ptr %19, i32 0, i32 0
  store float %39, ptr %40, align 8, !tbaa !141
  call void @llvm.lifetime.start.p0(i64 12, ptr %12) #12
  %41 = load ptr, ptr %8, align 8, !tbaa !124
  %42 = getelementptr inbounds nuw %"class.pbrt::RGBIlluminantSpectrum", ptr %19, i32 0, i32 0
  %43 = load float, ptr %42, align 8, !tbaa !141
  %44 = fcmp une float %43, 0.000000e+00
  br i1 %44, label %45, label %49

45:                                               ; preds = %4
  %46 = getelementptr inbounds nuw %"class.pbrt::RGBIlluminantSpectrum", ptr %19, i32 0, i32 0
  %47 = load float, ptr %46, align 8, !tbaa !141
  %48 = call { <2 x float>, float } @_ZNK4pbrt3RGBdvEf(ptr noundef nonnull align 4 dereferenceable(12) %5, float noundef %47)
  store { <2 x float>, float } %48, ptr %14, align 8
  call void @llvm.memcpy.p0.p0.i64(ptr align 4 %13, ptr align 8 %14, i64 12, i1 false)
  br label %50

49:                                               ; preds = %4
  call void @_ZN4pbrt3RGBC2Efff(ptr noundef nonnull align 4 dereferenceable(12) %13, float noundef 0.000000e+00, float noundef 0.000000e+00, float noundef 0.000000e+00)
  br label %50

50:                                               ; preds = %49, %45
  call void @llvm.memcpy.p0.p0.i64(ptr align 4 %15, ptr align 4 %13, i64 12, i1 false)
  %51 = getelementptr inbounds nuw { <2 x float>, float }, ptr %15, i32 0, i32 0
  %52 = load <2 x float>, ptr %51, align 4
  %53 = getelementptr inbounds nuw { <2 x float>, float }, ptr %15, i32 0, i32 1
  %54 = load float, ptr %53, align 4
  %55 = call { <2 x float>, float } @_ZNK4pbrt13RGBColorSpace11ToRGBCoeffsENS_3RGBE(ptr noundef nonnull align 8 dereferenceable(152) %41, <2 x float> %52, float %54)
  store { <2 x float>, float } %55, ptr %16, align 8
  call void @llvm.memcpy.p0.p0.i64(ptr align 4 %12, ptr align 8 %16, i64 12, i1 false)
  %56 = getelementptr inbounds nuw %"class.pbrt::RGBIlluminantSpectrum", ptr %19, i32 0, i32 1
  call void @llvm.memcpy.p0.p0.i64(ptr align 4 %56, ptr align 4 %12, i64 12, i1 false), !tbaa.struct !32
  call void @llvm.lifetime.end.p0(i64 12, ptr %12) #12
  call void @llvm.lifetime.end.p0(i64 4, ptr %9) #12
  ret void
}