; Function Attrs: mustprogress uwtable
define dso_local void @_ZN4pbrt21RGBIlluminantSpectrumC2ERKNS_13RGBColorSpaceENS_3RGBE(ptr noundef nonnull writeonly align 8 captures(none) dereferenceable(24) initializes((16, 24)) %0, ptr noundef nonnull align 8 dereferenceable(152) %1, <2 x float> %2, float %3) unnamed_addr #2 align 2 {
  %5 = alloca [3 x float], align 4
  %6 = getelementptr inbounds nuw i8, ptr %0, i64 16
  %7 = getelementptr inbounds nuw i8, ptr %1, i64 32
  store ptr %7, ptr %6, align 8, !tbaa !9
  call void @llvm.lifetime.start.p0(i64 12, ptr nonnull %5) #29
  %.sroa.016.0.vec.extract = extractelement <2 x float> %2, i64 0
  store float %.sroa.016.0.vec.extract, ptr %5, align 4, !tbaa !16
  %.ptr20 = getelementptr inbounds nuw i8, ptr %5, i64 4
  %.sroa.016.4.vec.extract = extractelement <2 x float> %2, i64 1
  store float %.sroa.016.4.vec.extract, ptr %.ptr20, align 4, !tbaa !16
  %8 = getelementptr inbounds nuw i8, ptr %5, i64 8
  store float %3, ptr %8, align 4, !tbaa !16
  br label %.lr.ph.i.i

.lr.ph.i.i:                                       ; preds = %.lr.ph.i.i, %4
  %9 = phi float [ %12, %.lr.ph.i.i ], [ %.sroa.016.0.vec.extract, %4 ]
  %.idx = phi i64 [ %.add, %.lr.ph.i.i ], [ 4, %4 ]
  %.018.i.i = phi ptr [ %spec.select.i.i, %.lr.ph.i.i ], [ %5, %4 ]
  %.ptr = getelementptr inbounds nuw i8, ptr %5, i64 %.idx
  %10 = load float, ptr %.ptr, align 4, !tbaa !16
  %11 = fcmp olt float %9, %10
  %12 = select i1 %11, float %10, float %9
  %spec.select.i.i = select i1 %11, ptr %.ptr, ptr %.018.i.i
  %.add = add nuw nsw i64 %.idx, 4
  %.not.i.i = icmp eq i64 %.add, 12
  br i1 %.not.i.i, label %_ZSt3maxIfET_St16initializer_listIS0_E.exit, label %.lr.ph.i.i, !llvm.loop !66

_ZSt3maxIfET_St16initializer_listIS0_E.exit:      ; preds = %.lr.ph.i.i
  %13 = load float, ptr %spec.select.i.i, align 4, !tbaa !16
  call void @llvm.lifetime.end.p0(i64 12, ptr nonnull %5) #29
  %14 = fmul float %13, 2.000000e+00
  store float %14, ptr %0, align 8, !tbaa !161
  %15 = fcmp une float %14, 0.000000e+00
  %16 = fdiv float %.sroa.016.0.vec.extract, %14
  %.sroa.0.0.vec.insert.i = insertelement <2 x float> poison, float %16, i64 0
  %17 = fdiv float %.sroa.016.4.vec.extract, %14
  %.sroa.0.4.vec.insert.i = insertelement <2 x float> %.sroa.0.0.vec.insert.i, float %17, i64 1
  %18 = fdiv float %3, %14
  %.sroa.4.0 = select i1 %15, float %18, float 0.000000e+00
  %.sroa.0.0 = select i1 %15, <2 x float> %.sroa.0.4.vec.insert.i, <2 x float> zeroinitializer
  %19 = tail call { <2 x float>, float } @_ZNK4pbrt13RGBColorSpace11ToRGBCoeffsENS_3RGBE(ptr noundef nonnull align 8 dereferenceable(152) %1, <2 x float> %.sroa.0.0, float %.sroa.4.0)
  %.fca.0.extract = extractvalue { <2 x float>, float } %19, 0
  %.fca.1.extract = extractvalue { <2 x float>, float } %19, 1
  %20 = getelementptr inbounds nuw i8, ptr %0, i64 4
  store <2 x float> %.fca.0.extract, ptr %20, align 4
  %.sroa.4.0..sroa_idx = getelementptr inbounds nuw i8, ptr %0, i64 12
  store float %.fca.1.extract, ptr %.sroa.4.0..sroa_idx, align 4, !tbaa !16
  ret void
}